target datalayout = "e-m:e-p270:32:32-p271:32:32-p272:64:64-i64:64-i128:128-f80:128-n8:16:32:64-S128"
target triple = "x86_64-pc-linux-gnu"

%struct._lv_roller_t = type { %struct._lv_obj_t, i32, i32, i32, i32, i8 }
%struct._lv_obj_t = type { ptr, ptr, ptr, ptr, ptr, %struct.lv_area_t, i32, i16, i16 }
%struct.lv_area_t = type { i32, i32, i32, i32 }

; Function Attrs: nounwind uwtable
define void @lv_roller_set_selected(ptr noundef %0, i32 noundef %1, i1 noundef zeroext %2) #0 {
  %4 = alloca ptr, align 8
  %5 = alloca i32, align 4
  %6 = alloca i8, align 1
  %7 = alloca ptr, align 8
  %8 = alloca i32, align 4
  %9 = alloca i32, align 4
  %10 = alloca i32, align 4
  %11 = alloca i32, align 4
  store ptr %0, ptr %4, align 8, !tbaa !8
  store i32 %1, ptr %5, align 4, !tbaa !24
  %12 = zext i1 %2 to i8
  store i8 %12, ptr %6, align 1, !tbaa !33
  br label %13

13:                                               ; preds = %3
  %14 = load ptr, ptr %4, align 8, !tbaa !8
  %15 = icmp ne ptr %14, null
  br i1 %15, label %20, label %16

16:                                               ; preds = %13
  br label %17

17:                                               ; preds = %16
  br label %18

18:                                               ; preds = %17
  br label %19

19:                                               ; preds = %18, %19
  br label %19

20:                                               ; preds = %13
  br label %21

21:                                               ; preds = %20
  call void @llvm.lifetime.start.p0(i64 8, ptr %7) #6
  %22 = load ptr, ptr %4, align 8, !tbaa !8
  store ptr %22, ptr %7, align 8, !tbaa !10
  %23 = load ptr, ptr %7, align 8, !tbaa !10
  %24 = getelementptr inbounds nuw %struct._lv_roller_t, ptr %23, i32 0, i32 5
  %25 = load i8, ptr %24, align 8
  %26 = and i8 %25, 3
  %27 = zext i8 %26 to i32
  %28 = icmp eq i32 %27, 1
  br i1 %28, label %29, label %98

29:                                               ; preds = %21
  call void @llvm.lifetime.start.p0(i64 4, ptr %8) #6
  %30 = load ptr, ptr %7, align 8, !tbaa !10
  %31 = getelementptr inbounds nuw %struct._lv_roller_t, ptr %30, i32 0, i32 1
  %32 = load i32, ptr %31, align 8, !tbaa !12
  %33 = load ptr, ptr %7, align 8, !tbaa !10
  %34 = getelementptr inbounds nuw %struct._lv_roller_t, ptr %33, i32 0, i32 4
  %35 = load i32, ptr %34, align 4, !tbaa !46
  %36 = udiv i32 %32, %35
  store i32 %36, ptr %8, align 4, !tbaa !24
  call void @llvm.lifetime.start.p0(i64 4, ptr %9) #6
  %37 = load ptr, ptr %7, align 8, !tbaa !10
  %38 = getelementptr inbounds nuw %struct._lv_roller_t, ptr %37, i32 0, i32 2
  %39 = load i32, ptr %38, align 4, !tbaa !20
  %40 = load i32, ptr %8, align 4, !tbaa !24
  %41 = udiv i32 %39, %40
  store i32 %41, ptr %9, align 4, !tbaa !24
  %42 = load i32, ptr %5, align 4, !tbaa !24
  %43 = load i32, ptr %8, align 4, !tbaa !24
  %44 = icmp ult i32 %42, %43
  br i1 %44, label %45, label %97

45:                                               ; preds = %29
  call void @llvm.lifetime.start.p0(i64 4, ptr %10) #6
  %46 = load ptr, ptr %7, align 8, !tbaa !10
  %47 = getelementptr inbounds nuw %struct._lv_roller_t, ptr %46, i32 0, i32 2
  %48 = load i32, ptr %47, align 4, !tbaa !20
  %49 = load i32, ptr %9, align 4, !tbaa !24
  %50 = load i32, ptr %8, align 4, !tbaa !24
  %51 = mul i32 %49, %50
  %52 = sub i32 %48, %51
  store i32 %52, ptr %10, align 4, !tbaa !24
  call void @llvm.lifetime.start.p0(i64 4, ptr %11) #6
  %53 = load i32, ptr %5, align 4, !tbaa !24
  store i32 %53, ptr %11, align 4, !tbaa !24
  %54 = load i32, ptr %10, align 4, !tbaa !24
  %55 = load i32, ptr %5, align 4, !tbaa !24
  %56 = sub i32 %54, %55
  %57 = trunc i32 %56 to i16
  %58 = sext i16 %57 to i32
  %59 = icmp sgt i32 %58, 0
  br i1 %59, label %60, label %66

60:                                               ; preds = %45
  %61 = load i32, ptr %10, align 4, !tbaa !24
  %62 = load i32, ptr %5, align 4, !tbaa !24
  %63 = sub i32 %61, %62
  %64 = trunc i32 %63 to i16
  %65 = sext i16 %64 to i32
  br label %73

66:                                               ; preds = %45
  %67 = load i32, ptr %10, align 4, !tbaa !24
  %68 = load i32, ptr %5, align 4, !tbaa !24
  %69 = sub i32 %67, %68
  %70 = trunc i32 %69 to i16
  %71 = sext i16 %70 to i32
  %72 = sub nsw i32 0, %71
  br label %73

73:                                               ; preds = %66, %60
  %74 = phi i32 [ %65, %60 ], [ %72, %66 ]
  %75 = load i32, ptr %8, align 4, !tbaa !24
  %76 = udiv i32 %75, 2
  %77 = icmp ugt i32 %74, %76
  br i1 %77, label %78, label %91

78:                                               ; preds = %73
  %79 = load i32, ptr %10, align 4, !tbaa !24
  %80 = load i32, ptr %5, align 4, !tbaa !24
  %81 = icmp ugt i32 %79, %80
  br i1 %81, label %82, label %86

82:                                               ; preds = %78
  %83 = load i32, ptr %8, align 4, !tbaa !24
  %84 = load i32, ptr %11, align 4, !tbaa !24
  %85 = add i32 %84, %83
  store i32 %85, ptr %11, align 4, !tbaa !24
  br label %90

86:                                               ; preds = %78
  %87 = load i32, ptr %8, align 4, !tbaa !24
  %88 = load i32, ptr %11, align 4, !tbaa !24
  %89 = sub i32 %88, %87
  store i32 %89, ptr %11, align 4, !tbaa !24
  br label %90

90:                                               ; preds = %86, %82
  br label %91

91:                                               ; preds = %90, %73
  %92 = load i32, ptr %11, align 4, !tbaa !24
  %93 = load i32, ptr %8, align 4, !tbaa !24
  %94 = load i32, ptr %9, align 4, !tbaa !24
  %95 = mul i32 %93, %94
  %96 = add i32 %92, %95
  store i32 %96, ptr %5, align 4, !tbaa !24
  call void @llvm.lifetime.end.p0(i64 4, ptr %11) #6
  call void @llvm.lifetime.end.p0(i64 4, ptr %10) #6
  br label %97

97:                                               ; preds = %91, %29
  call void @llvm.lifetime.end.p0(i64 4, ptr %9) #6
  call void @llvm.lifetime.end.p0(i64 4, ptr %8) #6
  br label %98

98:                                               ; preds = %97, %21
  %99 = load i32, ptr %5, align 4, !tbaa !24
  %100 = load ptr, ptr %7, align 8, !tbaa !10
  %101 = getelementptr inbounds nuw %struct._lv_roller_t, ptr %100, i32 0, i32 1
  %102 = load i32, ptr %101, align 8, !tbaa !12
  %103 = icmp ult i32 %99, %102
  br i1 %103, label %104, label %106

104:                                              ; preds = %98
  %105 = load i32, ptr %5, align 4, !tbaa !24
  br label %111

106:                                              ; preds = %98
  %107 = load ptr, ptr %7, align 8, !tbaa !10
  %108 = getelementptr inbounds nuw %struct._lv_roller_t, ptr %107, i32 0, i32 1
  %109 = load i32, ptr %108, align 8, !tbaa !12
  %110 = sub i32 %109, 1
  br label %111

111:                                              ; preds = %106, %104
  %112 = phi i32 [ %105, %104 ], [ %110, %106 ]
  %113 = load ptr, ptr %7, align 8, !tbaa !10
  %114 = getelementptr inbounds nuw %struct._lv_roller_t, ptr %113, i32 0, i32 2
  store i32 %112, ptr %114, align 4, !tbaa !20
  %115 = load ptr, ptr %7, align 8, !tbaa !10
  %116 = getelementptr inbounds nuw %struct._lv_roller_t, ptr %115, i32 0, i32 2
  %117 = load i32, ptr %116, align 4, !tbaa !20
  %118 = load ptr, ptr %7, align 8, !tbaa !10
  %119 = getelementptr inbounds nuw %struct._lv_roller_t, ptr %118, i32 0, i32 3
  store i32 %117, ptr %119, align 8, !tbaa !21
  %120 = load ptr, ptr %4, align 8, !tbaa !8
  %121 = load i8, ptr %6, align 1, !tbaa !33, !range !35, !noundef !36
  %122 = trunc i8 %121 to i1
  call void @refr_position(ptr noundef %120, i1 noundef zeroext %122)
  call void @llvm.lifetime.end.p0(i64 8, ptr %7) #6
  ret void
}