; Function Attrs: nounwind uwtable
define void @lv_roller_set_selected(ptr noundef %0, i32 noundef %1, i1 noundef zeroext %2) local_unnamed_addr #0 {
  %.not = icmp eq ptr %0, null
  br i1 %.not, label %.preheader, label %4

.preheader:                                       ; preds = %3, %.preheader
  br label %.preheader

4:                                                ; preds = %3
  %5 = getelementptr inbounds nuw i8, ptr %0, i64 80
  %6 = load i8, ptr %5, align 8
  %7 = and i8 %6, 3
  %8 = icmp eq i8 %7, 1
  %9 = getelementptr inbounds nuw i8, ptr %0, i64 64
  %10 = load i32, ptr %9, align 8, !tbaa !3
  br i1 %8, label %11, label %._crit_edge

11:                                               ; preds = %4
  %12 = getelementptr inbounds nuw i8, ptr %0, i64 76
  %13 = load i32, ptr %12, align 4, !tbaa !42
  %14 = udiv i32 %10, %13
  %15 = icmp ult i32 %1, %14
  br i1 %15, label %16, label %._crit_edge

16:                                               ; preds = %11
  %17 = getelementptr inbounds nuw i8, ptr %0, i64 68
  %18 = load i32, ptr %17, align 4, !tbaa !16
  %.fr = freeze i32 %18
  %19 = urem i32 %.fr, %14
  %20 = sub nuw i32 %.fr, %19
  %21 = sub i32 %19, %1
  %sext = shl i32 %21, 16
  %22 = ashr exact i32 %sext, 16
  %23 = tail call i32 @llvm.abs.i32(i32 %22, i1 true)
  %24 = lshr i32 %14, 1
  %25 = icmp samesign ugt i32 %23, %24
  br i1 %25, label %26, label %32

26:                                               ; preds = %16
  %27 = icmp ugt i32 %19, %1
  br i1 %27, label %28, label %30

28:                                               ; preds = %26
  %29 = add i32 %14, %1
  br label %32

30:                                               ; preds = %26
  %31 = sub i32 %1, %14
  br label %32

32:                                               ; preds = %28, %30, %16
  %.0 = phi i32 [ %29, %28 ], [ %31, %30 ], [ %1, %16 ]
  %33 = add i32 %20, %.0
  br label %._crit_edge

._crit_edge:                                      ; preds = %4, %11, %32
  %.037 = phi i32 [ %33, %32 ], [ %1, %11 ], [ %1, %4 ]
  %34 = icmp ult i32 %.037, %10
  %35 = add i32 %10, -1
  %36 = select i1 %34, i32 %.037, i32 %35
  %37 = getelementptr inbounds nuw i8, ptr %0, i64 68
  store i32 %36, ptr %37, align 4, !tbaa !16
  %38 = getelementptr inbounds nuw i8, ptr %0, i64 72
  store i32 %36, ptr %38, align 8, !tbaa !17
  tail call fastcc void @refr_position(ptr noundef nonnull %0, i1 noundef zeroext %2)
  ret void
}